target datalayout = "e-m:e-p270:32:32-p271:32:32-p272:64:64-i64:64-i128:128-f80:128-n8:16:32:64-S128"
target triple = "x86_64-pc-linux-gnu"

%"class.clang::DeclarationName" = type { i64 }
%"class.clang::SourceLocation" = type { i32 }
%"struct.clang::DeclarationNameInfo" = type { %"class.clang::DeclarationName", %"class.clang::SourceLocation", %"class.clang::DeclarationNameLoc" }
%"class.clang::DeclarationNameLoc" = type { %union.anon.658 }
%union.anon.658 = type { %"struct.clang::DeclarationNameLoc::NT" }
%"struct.clang::DeclarationNameLoc::NT" = type { ptr }
%"class.clang::SourceRange" = type { %"class.clang::SourceLocation", %"class.clang::SourceLocation" }
%"class.clang::CXXScopeSpec" = type { %"class.clang::SourceRange", %"class.clang::NestedNameSpecifierLocBuilder", %"class.llvm::ArrayRef" }
%"class.clang::NestedNameSpecifierLocBuilder" = type { ptr, ptr, i32, i32 }
%"class.llvm::ArrayRef" = type { ptr, i64 }
%struct.QueryState = type { ptr, %"struct.clang::DeclarationNameInfo", i32, i32 }
%class.anon.1220 = type { %struct.QueryState, ptr, %"class.clang::SourceLocation", i8, %"class.clang::CXXScopeSpec" }

; Function Attrs: mustprogress nounwind uwtable
define linkonce_odr hidden void @_ZN5clang29NestedNameSpecifierLocBuilderD2Ev(ptr noundef nonnull align 8 dereferenceable(24) %0) unnamed_addr #0 comdat align 2 {
  %2 = alloca ptr, align 8
  store ptr %0, ptr %2, align 8
  %3 = load ptr, ptr %2, align 8
  %4 = getelementptr inbounds nuw %"class.clang::NestedNameSpecifierLocBuilder", ptr %3, i32 0, i32 3
  %5 = load i32, ptr %4, align 4
  %6 = icmp ne i32 %5, 0
  br i1 %6, label %7, label %10

7:                                                ; preds = %1
  %8 = getelementptr inbounds nuw %"class.clang::NestedNameSpecifierLocBuilder", ptr %3, i32 0, i32 1
  %9 = load ptr, ptr %8, align 8
  call void @free(ptr noundef %9) #12
  br label %10

10:                                               ; preds = %7, %1
  ret void
}

; Function Attrs: mustprogress nounwind uwtable
define linkonce_odr hidden void @_ZN5clang12CXXScopeSpecC2ERKS0_(ptr noundef nonnull align 8 dereferenceable(48) %0, ptr noundef nonnull align 8 dereferenceable(48) %1) unnamed_addr #0 comdat align 2 {
  %3 = alloca ptr, align 8
  %4 = alloca ptr, align 8
  store ptr %0, ptr %3, align 8
  store ptr %1, ptr %4, align 8
  %5 = load ptr, ptr %3, align 8
  %6 = getelementptr inbounds nuw %"class.clang::CXXScopeSpec", ptr %5, i32 0, i32 0
  %7 = load ptr, ptr %4, align 8
  %8 = getelementptr inbounds nuw %"class.clang::CXXScopeSpec", ptr %7, i32 0, i32 0
  call void @llvm.memcpy.p0.p0.i64(ptr align 8 %6, ptr align 8 %8, i64 8, i1 false)
  %9 = getelementptr inbounds nuw %"class.clang::CXXScopeSpec", ptr %5, i32 0, i32 1
  %10 = load ptr, ptr %4, align 8
  %11 = getelementptr inbounds nuw %"class.clang::CXXScopeSpec", ptr %10, i32 0, i32 1
  call void @_ZN5clang29NestedNameSpecifierLocBuilderC1ERKS0_(ptr noundef nonnull align 8 dereferenceable(24) %9, ptr noundef nonnull align 8 dereferenceable(24) %11)
  %12 = getelementptr inbounds nuw %"class.clang::CXXScopeSpec", ptr %5, i32 0, i32 2
  %13 = load ptr, ptr %4, align 8
  %14 = getelementptr inbounds nuw %"class.clang::CXXScopeSpec", ptr %13, i32 0, i32 2
  call void @llvm.memcpy.p0.p0.i64(ptr align 8 %12, ptr align 8 %14, i64 16, i1 false)
  ret void
}

; Function Attrs: mustprogress nounwind uwtable
define linkonce_odr hidden void @_ZN5clang12CXXScopeSpecD2Ev(ptr noundef nonnull align 8 dereferenceable(48) %0) unnamed_addr #0 comdat align 2 {
  %2 = alloca ptr, align 8
  store ptr %0, ptr %2, align 8
  %3 = load ptr, ptr %2, align 8
  %4 = getelementptr inbounds nuw %"class.clang::CXXScopeSpec", ptr %3, i32 0, i32 1
  call void @_ZN5clang29NestedNameSpecifierLocBuilderD2Ev(ptr noundef nonnull align 8 dereferenceable(24) %4) #12
  ret void
}

; Function Attrs: mustprogress nounwind uwtable
define internal void @"_ZZL24LookupMemberExprInRecordRN5clang4SemaERNS_12LookupResultEPNS_4ExprENS_8QualTypeENS_14SourceLocationEbRNS_12CXXScopeSpecEbS7_RPNS_8TypoExprEEN3$_1C2ERKSD_"(ptr noundef nonnull align 8 dereferenceable(104) %0, ptr noundef nonnull align 8 dereferenceable(104) %1) unnamed_addr #0 align 2 {
  %3 = alloca ptr, align 8
  %4 = alloca ptr, align 8
  store ptr %0, ptr %3, align 8
  store ptr %1, ptr %4, align 8
  %5 = load ptr, ptr %3, align 8
  %6 = getelementptr inbounds nuw %class.anon.1220, ptr %5, i32 0, i32 0
  %7 = load ptr, ptr %4, align 8
  %8 = getelementptr inbounds nuw %class.anon.1220, ptr %7, i32 0, i32 0
  call void @llvm.memcpy.p0.p0.i64(ptr align 8 %6, ptr align 8 %8, i64 53, i1 false)
  %9 = getelementptr inbounds nuw %class.anon.1220, ptr %5, i32 0, i32 4
  %10 = load ptr, ptr %4, align 8
  %11 = getelementptr inbounds nuw %class.anon.1220, ptr %10, i32 0, i32 4
  call void @_ZN5clang12CXXScopeSpecC2ERKS0_(ptr noundef nonnull align 8 dereferenceable(48) %9, ptr noundef nonnull align 8 dereferenceable(48) %11)
  ret void
}

; Function Attrs: mustprogress nounwind uwtable
define internal void @"_ZZL24LookupMemberExprInRecordRN5clang4SemaERNS_12LookupResultEPNS_4ExprENS_8QualTypeENS_14SourceLocationEbRNS_12CXXScopeSpecEbS7_RPNS_8TypoExprEEN3$_1D2Ev"(ptr noundef nonnull align 8 dereferenceable(104) %0) unnamed_addr #0 align 2 {
  %2 = alloca ptr, align 8
  store ptr %0, ptr %2, align 8
  %3 = load ptr, ptr %2, align 8
  %4 = getelementptr inbounds nuw %class.anon.1220, ptr %3, i32 0, i32 4
  call void @_ZN5clang12CXXScopeSpecD2Ev(ptr noundef nonnull align 8 dereferenceable(48) %4) #12
  ret void
}

; Function Attrs: mustprogress nounwind uwtable
define internal void @"_ZNSt14_Function_base13_Base_managerIZL24LookupMemberExprInRecordRN5clang4SemaERNS1_12LookupResultEPNS1_4ExprENS1_8QualTypeENS1_14SourceLocationEbRNS1_12CXXScopeSpecEbS9_RPNS1_8TypoExprEE3$_1E9_M_createIRKSF_EEvRSt9_Any_dataOT_St17integral_constantIbLb0EE"(ptr noundef nonnull align 8 dereferenceable(16) %0, ptr noundef nonnull align 8 dereferenceable(104) %1) #0 align 2 {
  %3 = alloca ptr, align 8
  %4 = alloca ptr, align 8
  store ptr %0, ptr %3, align 8
  store ptr %1, ptr %4, align 8
  %5 = call noalias noundef nonnull ptr @_Znwm(i64 noundef 104) #14
  %6 = load ptr, ptr %4, align 8
  call void @"_ZZL24LookupMemberExprInRecordRN5clang4SemaERNS_12LookupResultEPNS_4ExprENS_8QualTypeENS_14SourceLocationEbRNS_12CXXScopeSpecEbS7_RPNS_8TypoExprEEN3$_1C2ERKSD_"(ptr noundef nonnull align 8 dereferenceable(104) %5, ptr noundef nonnull align 8 dereferenceable(104) %6)
  %7 = load ptr, ptr %3, align 8
  %8 = call noundef nonnull align 8 dereferenceable(8) ptr @"_ZNSt9_Any_data9_M_accessIPZL24LookupMemberExprInRecordRN5clang4SemaERNS1_12LookupResultEPNS1_4ExprENS1_8QualTypeENS1_14SourceLocationEbRNS1_12CXXScopeSpecEbS9_RPNS1_8TypoExprEE3$_1EERT_v"(ptr noundef nonnull align 8 dereferenceable(16) %7) #12
  store ptr %5, ptr %8, align 8
  ret void
}

; Function Attrs: mustprogress nounwind uwtable
define linkonce_odr hidden noundef ptr @_ZNKSt9_Any_data9_M_accessEv(ptr noundef nonnull align 8 dereferenceable(16) %0) #0 comdat align 2 {
  %2 = alloca ptr, align 8
  store ptr %0, ptr %2, align 8
  %3 = load ptr, ptr %2, align 8
  %4 = getelementptr inbounds [16 x i8], ptr %3, i64 0, i64 0
  ret ptr %4
}

; Function Attrs: mustprogress nounwind uwtable
define internal void @"_ZNSt14_Function_base13_Base_managerIZL24LookupMemberExprInRecordRN5clang4SemaERNS1_12LookupResultEPNS1_4ExprENS1_8QualTypeENS1_14SourceLocationEbRNS1_12CXXScopeSpecEbS9_RPNS1_8TypoExprEE3$_1E10_M_destroyERSt9_Any_dataSt17integral_constantIbLb0EE"(ptr noundef nonnull align 8 dereferenceable(16) %0) #0 align 2 {
  %2 = alloca ptr, align 8
  store ptr %0, ptr %2, align 8
  %3 = load ptr, ptr %2, align 8
  %4 = call noundef nonnull align 8 dereferenceable(8) ptr @"_ZNSt9_Any_data9_M_accessIPZL24LookupMemberExprInRecordRN5clang4SemaERNS1_12LookupResultEPNS1_4ExprENS1_8QualTypeENS1_14SourceLocationEbRNS1_12CXXScopeSpecEbS9_RPNS1_8TypoExprEE3$_1EERT_v"(ptr noundef nonnull align 8 dereferenceable(16) %3) #12
  %5 = load ptr, ptr %4, align 8
  %6 = icmp eq ptr %5, null
  br i1 %6, label %8, label %7

7:                                                ; preds = %1
  call void @"_ZZL24LookupMemberExprInRecordRN5clang4SemaERNS_12LookupResultEPNS_4ExprENS_8QualTypeENS_14SourceLocationEbRNS_12CXXScopeSpecEbS7_RPNS_8TypoExprEEN3$_1D2Ev"(ptr noundef nonnull align 8 dereferenceable(104) %5) #12
  call void @_ZdlPvm(ptr noundef %5, i64 noundef 104) #15
  br label %8

8:                                                ; preds = %7, %1
  ret void
}

; Function Attrs: mustprogress nounwind uwtable
define internal void @"_ZNSt14_Function_base13_Base_managerIZL24LookupMemberExprInRecordRN5clang4SemaERNS1_12LookupResultEPNS1_4ExprENS1_8QualTypeENS1_14SourceLocationEbRNS1_12CXXScopeSpecEbS9_RPNS1_8TypoExprEE3$_1E15_M_init_functorIRKSF_EEvRSt9_Any_dataOT_"(ptr noundef nonnull align 8 dereferenceable(16) %0, ptr noundef nonnull align 8 dereferenceable(104) %1) #0 align 2 {
  %3 = alloca ptr, align 8
  %4 = alloca ptr, align 8
  store ptr %0, ptr %3, align 8
  store ptr %1, ptr %4, align 8
  %5 = load ptr, ptr %3, align 8
  %6 = load ptr, ptr %4, align 8
  call void @"_ZNSt14_Function_base13_Base_managerIZL24LookupMemberExprInRecordRN5clang4SemaERNS1_12LookupResultEPNS1_4ExprENS1_8QualTypeENS1_14SourceLocationEbRNS1_12CXXScopeSpecEbS9_RPNS1_8TypoExprEE3$_1E9_M_createIRKSF_EEvRSt9_Any_dataOT_St17integral_constantIbLb0EE"(ptr noundef nonnull align 8 dereferenceable(16) %5, ptr noundef nonnull align 8 dereferenceable(104) %6)
  ret void
}

; Function Attrs: mustprogress nounwind uwtable
define linkonce_odr hidden noundef nonnull align 8 dereferenceable(8) ptr @_ZNSt9_Any_data9_M_accessIPKSt9type_infoEERT_v(ptr noundef nonnull align 8 dereferenceable(16) %0) #0 comdat align 2 {
  %2 = alloca ptr, align 8
  store ptr %0, ptr %2, align 8
  %3 = load ptr, ptr %2, align 8
  %4 = call noundef ptr @_ZNSt9_Any_data9_M_accessEv(ptr noundef nonnull align 8 dereferenceable(16) %3) #12
  ret ptr %4
}

; Function Attrs: mustprogress nounwind uwtable
define linkonce_odr hidden noundef ptr @_ZNSt9_Any_data9_M_accessEv(ptr noundef nonnull align 8 dereferenceable(16) %0) #0 comdat align 2 {
  %2 = alloca ptr, align 8
  store ptr %0, ptr %2, align 8
  %3 = load ptr, ptr %2, align 8
  %4 = getelementptr inbounds [16 x i8], ptr %3, i64 0, i64 0
  ret ptr %4
}

; Function Attrs: mustprogress nounwind uwtable
define internal noundef nonnull align 8 dereferenceable(8) ptr @"_ZNKSt9_Any_data9_M_accessIPZL24LookupMemberExprInRecordRN5clang4SemaERNS1_12LookupResultEPNS1_4ExprENS1_8QualTypeENS1_14SourceLocationEbRNS1_12CXXScopeSpecEbS9_RPNS1_8TypoExprEE3$_1EERKT_v"(ptr noundef nonnull align 8 dereferenceable(16) %0) #0 align 2 {
  %2 = alloca ptr, align 8
  store ptr %0, ptr %2, align 8
  %3 = load ptr, ptr %2, align 8
  %4 = call noundef ptr @_ZNKSt9_Any_data9_M_accessEv(ptr noundef nonnull align 8 dereferenceable(16) %3) #12
  ret ptr %4
}

; Function Attrs: mustprogress nounwind uwtable
define internal noundef zeroext i1 @"_ZNSt14_Function_base13_Base_managerIZL24LookupMemberExprInRecordRN5clang4SemaERNS1_12LookupResultEPNS1_4ExprENS1_8QualTypeENS1_14SourceLocationEbRNS1_12CXXScopeSpecEbS9_RPNS1_8TypoExprEE3$_1E10_M_managerERSt9_Any_dataRKSH_St18_Manager_operation"(ptr noundef nonnull align 8 dereferenceable(16) %0, ptr noundef nonnull align 8 dereferenceable(16) %1, i32 noundef %2) #0 align 2 {
  %4 = alloca ptr, align 8
  %5 = alloca ptr, align 8
  %6 = alloca i32, align 4
  store ptr %0, ptr %4, align 8
  store ptr %1, ptr %5, align 8
  store i32 %2, ptr %6, align 4
  %7 = load i32, ptr %6, align 4
  switch i32 %7, label %22 [
    i32 0, label %8
    i32 1, label %11
    i32 2, label %16
    i32 3, label %20
  ]

8:                                                ; preds = %3
  %9 = load ptr, ptr %4, align 8
  %10 = call noundef nonnull align 8 dereferenceable(8) ptr @_ZNSt9_Any_data9_M_accessIPKSt9type_infoEERT_v(ptr noundef nonnull align 8 dereferenceable(16) %9) #12
  store ptr null, ptr %10, align 8
  br label %22

11:                                               ; preds = %3
  %12 = load ptr, ptr %5, align 8
  %13 = call noundef ptr @"_ZNSt14_Function_base13_Base_managerIZL24LookupMemberExprInRecordRN5clang4SemaERNS1_12LookupResultEPNS1_4ExprENS1_8QualTypeENS1_14SourceLocationEbRNS1_12CXXScopeSpecEbS9_RPNS1_8TypoExprEE3$_1E14_M_get_pointerERKSt9_Any_data"(ptr noundef nonnull align 8 dereferenceable(16) %12) #12
  %14 = load ptr, ptr %4, align 8
  %15 = call noundef nonnull align 8 dereferenceable(8) ptr @"_ZNSt9_Any_data9_M_accessIPZL24LookupMemberExprInRecordRN5clang4SemaERNS1_12LookupResultEPNS1_4ExprENS1_8QualTypeENS1_14SourceLocationEbRNS1_12CXXScopeSpecEbS9_RPNS1_8TypoExprEE3$_1EERT_v"(ptr noundef nonnull align 8 dereferenceable(16) %14) #12
  store ptr %13, ptr %15, align 8
  br label %22

16:                                               ; preds = %3
  %17 = load ptr, ptr %4, align 8
  %18 = load ptr, ptr %5, align 8
  %19 = call noundef ptr @"_ZNSt14_Function_base13_Base_managerIZL24LookupMemberExprInRecordRN5clang4SemaERNS1_12LookupResultEPNS1_4ExprENS1_8QualTypeENS1_14SourceLocationEbRNS1_12CXXScopeSpecEbS9_RPNS1_8TypoExprEE3$_1E14_M_get_pointerERKSt9_Any_data"(ptr noundef nonnull align 8 dereferenceable(16) %18) #12
  call void @"_ZNSt14_Function_base13_Base_managerIZL24LookupMemberExprInRecordRN5clang4SemaERNS1_12LookupResultEPNS1_4ExprENS1_8QualTypeENS1_14SourceLocationEbRNS1_12CXXScopeSpecEbS9_RPNS1_8TypoExprEE3$_1E15_M_init_functorIRKSF_EEvRSt9_Any_dataOT_"(ptr noundef nonnull align 8 dereferenceable(16) %17, ptr noundef nonnull align 8 dereferenceable(104) %19)
  br label %22

20:                                               ; preds = %3
  %21 = load ptr, ptr %4, align 8
  call void @"_ZNSt14_Function_base13_Base_managerIZL24LookupMemberExprInRecordRN5clang4SemaERNS1_12LookupResultEPNS1_4ExprENS1_8QualTypeENS1_14SourceLocationEbRNS1_12CXXScopeSpecEbS9_RPNS1_8TypoExprEE3$_1E10_M_destroyERSt9_Any_dataSt17integral_constantIbLb0EE"(ptr noundef nonnull align 8 dereferenceable(16) %21)
  br label %22

22:                                               ; preds = %20, %16, %11, %8, %3
  ret i1 false
}

; Function Attrs: mustprogress nounwind uwtable
define internal noundef nonnull align 8 dereferenceable(8) ptr @"_ZNSt9_Any_data9_M_accessIPZL24LookupMemberExprInRecordRN5clang4SemaERNS1_12LookupResultEPNS1_4ExprENS1_8QualTypeENS1_14SourceLocationEbRNS1_12CXXScopeSpecEbS9_RPNS1_8TypoExprEE3$_1EERT_v"(ptr noundef nonnull align 8 dereferenceable(16) %0) #0 align 2 {
  %2 = alloca ptr, align 8
  store ptr %0, ptr %2, align 8
  %3 = load ptr, ptr %2, align 8
  %4 = call noundef ptr @_ZNSt9_Any_data9_M_accessEv(ptr noundef nonnull align 8 dereferenceable(16) %3) #12
  ret ptr %4
}

; Function Attrs: mustprogress nounwind uwtable
define internal noundef ptr @"_ZNSt14_Function_base13_Base_managerIZL24LookupMemberExprInRecordRN5clang4SemaERNS1_12LookupResultEPNS1_4ExprENS1_8QualTypeENS1_14SourceLocationEbRNS1_12CXXScopeSpecEbS9_RPNS1_8TypoExprEE3$_1E14_M_get_pointerERKSt9_Any_data"(ptr noundef nonnull align 8 dereferenceable(16) %0) #0 align 2 {
  %2 = alloca ptr, align 8
  store ptr %0, ptr %2, align 8
  %3 = load ptr, ptr %2, align 8
  %4 = call noundef nonnull align 8 dereferenceable(8) ptr @"_ZNKSt9_Any_data9_M_accessIPZL24LookupMemberExprInRecordRN5clang4SemaERNS1_12LookupResultEPNS1_4ExprENS1_8QualTypeENS1_14SourceLocationEbRNS1_12CXXScopeSpecEbS9_RPNS1_8TypoExprEE3$_1EERKT_v"(ptr noundef nonnull align 8 dereferenceable(16) %3) #12
  %5 = load ptr, ptr %4, align 8
  ret ptr %5
}

; Function Attrs: mustprogress nounwind uwtable
define internal noundef zeroext i1 @"_ZNSt17_Function_handlerIFN5clang12ActionResultIPNS0_4ExprELb1EEERNS0_4SemaEPNS0_8TypoExprENS0_14TypoCorrectionEEZL24LookupMemberExprInRecordS6_RNS0_12LookupResultES3_NS0_8QualTypeENS0_14SourceLocationEbRNS0_12CXXScopeSpecEbSE_RS8_E3$_1E10_M_managerERSt9_Any_dataRKSK_St18_Manager_operation"(ptr noundef nonnull align 8 dereferenceable(16) %0, ptr noundef nonnull align 8 dereferenceable(16) %1, i32 noundef %2) #0 align 2 {
  %4 = alloca ptr, align 8
  %5 = alloca ptr, align 8
  %6 = alloca i32, align 4
  store ptr %0, ptr %4, align 8
  store ptr %1, ptr %5, align 8
  store i32 %2, ptr %6, align 4
  %7 = load i32, ptr %6, align 4
  switch i32 %7, label %13 [
    i32 1, label %8
  ]

8:                                                ; preds = %3
  %9 = load ptr, ptr %5, align 8
  %10 = call noundef ptr @"_ZNSt14_Function_base13_Base_managerIZL24LookupMemberExprInRecordRN5clang4SemaERNS1_12LookupResultEPNS1_4ExprENS1_8QualTypeENS1_14SourceLocationEbRNS1_12CXXScopeSpecEbS9_RPNS1_8TypoExprEE3$_1E14_M_get_pointerERKSt9_Any_data"(ptr noundef nonnull align 8 dereferenceable(16) %9) #12
  %11 = load ptr, ptr %4, align 8
  %12 = call noundef nonnull align 8 dereferenceable(8) ptr @"_ZNSt9_Any_data9_M_accessIPZL24LookupMemberExprInRecordRN5clang4SemaERNS1_12LookupResultEPNS1_4ExprENS1_8QualTypeENS1_14SourceLocationEbRNS1_12CXXScopeSpecEbS9_RPNS1_8TypoExprEE3$_1EERT_v"(ptr noundef nonnull align 8 dereferenceable(16) %11) #12
  store ptr %10, ptr %12, align 8
  br label %18

13:                                               ; preds = %3
  %14 = load ptr, ptr %4, align 8
  %15 = load ptr, ptr %5, align 8
  %16 = load i32, ptr %6, align 4
  %17 = call noundef zeroext i1 @"_ZNSt14_Function_base13_Base_managerIZL24LookupMemberExprInRecordRN5clang4SemaERNS1_12LookupResultEPNS1_4ExprENS1_8QualTypeENS1_14SourceLocationEbRNS1_12CXXScopeSpecEbS9_RPNS1_8TypoExprEE3$_1E10_M_managerERSt9_Any_dataRKSH_St18_Manager_operation"(ptr noundef nonnull align 8 dereferenceable(16) %14, ptr noundef nonnull align 8 dereferenceable(16) %15, i32 noundef %16)
  br label %18

18:                                               ; preds = %13, %8
  ret i1 false
}