; Function Attrs: mustprogress nounwind uwtable
define internal noundef zeroext i1 @"_ZNSt17_Function_handlerIFN5clang12ActionResultIPNS0_4ExprELb1EEERNS0_4SemaEPNS0_8TypoExprENS0_14TypoCorrectionEEZL24LookupMemberExprInRecordS6_RNS0_12LookupResultES3_NS0_8QualTypeENS0_14SourceLocationEbRNS0_12CXXScopeSpecEbSE_RS8_E3$_1E10_M_managerERSt9_Any_dataRKSK_St18_Manager_operation"(ptr nocapture noundef nonnull align 8 dereferenceable(16) %0, ptr nocapture noundef nonnull readonly align 8 dereferenceable(16) %1, i32 noundef %2) #0 align 2 {
  switch i32 %2, label %"_ZNSt14_Function_base13_Base_managerIZL24LookupMemberExprInRecordRN5clang4SemaERNS1_12LookupResultEPNS1_4ExprENS1_8QualTypeENS1_14SourceLocationEbRNS1_12CXXScopeSpecEbS9_RPNS1_8TypoExprEE3$_1E10_M_managerERSt9_Any_dataRKSH_St18_Manager_operation.exit" [
    i32 1, label %4
    i32 0, label %5
    i32 3, label %15
    i32 2, label %6
  ]

4:                                                ; preds = %3
  %.val = load ptr, ptr %1, align 8
  store ptr %.val, ptr %0, align 8
  br label %"_ZNSt14_Function_base13_Base_managerIZL24LookupMemberExprInRecordRN5clang4SemaERNS1_12LookupResultEPNS1_4ExprENS1_8QualTypeENS1_14SourceLocationEbRNS1_12CXXScopeSpecEbS9_RPNS1_8TypoExprEE3$_1E10_M_managerERSt9_Any_dataRKSH_St18_Manager_operation.exit"

5:                                                ; preds = %3
  store ptr null, ptr %0, align 8
  br label %"_ZNSt14_Function_base13_Base_managerIZL24LookupMemberExprInRecordRN5clang4SemaERNS1_12LookupResultEPNS1_4ExprENS1_8QualTypeENS1_14SourceLocationEbRNS1_12CXXScopeSpecEbS9_RPNS1_8TypoExprEE3$_1E10_M_managerERSt9_Any_dataRKSH_St18_Manager_operation.exit"

6:                                                ; preds = %3
  %.val5 = load ptr, ptr %1, align 8
  %7 = tail call noalias noundef nonnull dereferenceable(104) ptr @_Znwm(i64 noundef 104) #19
  tail call void @llvm.memcpy.p0.p0.i64(ptr noundef nonnull align 8 dereferenceable(53) %7, ptr noundef nonnull align 8 dereferenceable(53) %.val5, i64 53, i1 false)
  %8 = getelementptr inbounds nuw i8, ptr %7, i64 56
  %9 = getelementptr inbounds nuw i8, ptr %.val5, i64 56
  %10 = load i64, ptr %9, align 8
  store i64 %10, ptr %8, align 8
  %11 = getelementptr inbounds i8, ptr %7, i64 64
  %12 = getelementptr inbounds i8, ptr %.val5, i64 64
  tail call void @_ZN5clang29NestedNameSpecifierLocBuilderC1ERKS0_(ptr noundef nonnull align 8 dereferenceable(24) %11, ptr noundef nonnull align 8 dereferenceable(24) %12) #17
  %13 = getelementptr inbounds i8, ptr %7, i64 88
  %14 = getelementptr inbounds i8, ptr %.val5, i64 88
  tail call void @llvm.memcpy.p0.p0.i64(ptr noundef nonnull align 8 dereferenceable(16) %13, ptr noundef nonnull align 8 dereferenceable(16) %14, i64 16, i1 false)
  store ptr %7, ptr %0, align 8
  br label %"_ZNSt14_Function_base13_Base_managerIZL24LookupMemberExprInRecordRN5clang4SemaERNS1_12LookupResultEPNS1_4ExprENS1_8QualTypeENS1_14SourceLocationEbRNS1_12CXXScopeSpecEbS9_RPNS1_8TypoExprEE3$_1E10_M_managerERSt9_Any_dataRKSH_St18_Manager_operation.exit"

15:                                               ; preds = %3
  %.val6.i = load ptr, ptr %0, align 8
  %16 = icmp eq ptr %.val6.i, null
  br i1 %16, label %"_ZNSt14_Function_base13_Base_managerIZL24LookupMemberExprInRecordRN5clang4SemaERNS1_12LookupResultEPNS1_4ExprENS1_8QualTypeENS1_14SourceLocationEbRNS1_12CXXScopeSpecEbS9_RPNS1_8TypoExprEE3$_1E10_M_managerERSt9_Any_dataRKSH_St18_Manager_operation.exit", label %17

17:                                               ; preds = %15
  %18 = getelementptr i8, ptr %.val6.i, i64 84
  %.val1.i.i = load i32, ptr %18, align 4
  %.not.i.i.i.i.i = icmp eq i32 %.val1.i.i, 0
  br i1 %.not.i.i.i.i.i, label %"_ZZL24LookupMemberExprInRecordRN5clang4SemaERNS_12LookupResultEPNS_4ExprENS_8QualTypeENS_14SourceLocationEbRNS_12CXXScopeSpecEbS7_RPNS_8TypoExprEEN3$_1D2Ev.exit.i.i", label %19

19:                                               ; preds = %17
  %20 = getelementptr i8, ptr %.val6.i, i64 72
  %.val.i.i = load ptr, ptr %20, align 8
  tail call void @free(ptr noundef %.val.i.i) #17
  br label %"_ZZL24LookupMemberExprInRecordRN5clang4SemaERNS_12LookupResultEPNS_4ExprENS_8QualTypeENS_14SourceLocationEbRNS_12CXXScopeSpecEbS7_RPNS_8TypoExprEEN3$_1D2Ev.exit.i.i"

"_ZZL24LookupMemberExprInRecordRN5clang4SemaERNS_12LookupResultEPNS_4ExprENS_8QualTypeENS_14SourceLocationEbRNS_12CXXScopeSpecEbS7_RPNS_8TypoExprEEN3$_1D2Ev.exit.i.i": ; preds = %19, %17
  tail call void @_ZdlPvm(ptr noundef nonnull %.val6.i, i64 noundef 104) #20
  br label %"_ZNSt14_Function_base13_Base_managerIZL24LookupMemberExprInRecordRN5clang4SemaERNS1_12LookupResultEPNS1_4ExprENS1_8QualTypeENS1_14SourceLocationEbRNS1_12CXXScopeSpecEbS9_RPNS1_8TypoExprEE3$_1E10_M_managerERSt9_Any_dataRKSH_St18_Manager_operation.exit"

"_ZNSt14_Function_base13_Base_managerIZL24LookupMemberExprInRecordRN5clang4SemaERNS1_12LookupResultEPNS1_4ExprENS1_8QualTypeENS1_14SourceLocationEbRNS1_12CXXScopeSpecEbS9_RPNS1_8TypoExprEE3$_1E10_M_managerERSt9_Any_dataRKSH_St18_Manager_operation.exit": ; preds = %3, %"_ZZL24LookupMemberExprInRecordRN5clang4SemaERNS_12LookupResultEPNS_4ExprENS_8QualTypeENS_14SourceLocationEbRNS_12CXXScopeSpecEbS7_RPNS_8TypoExprEEN3$_1D2Ev.exit.i.i", %15, %6, %5, %4
  ret i1 false
}